(dp0
S'admin'
p1
(S'87947'
p2
S'sha1$87947$5b0ba11d96f9e7365c605e74929b44434ba5e819'
p3
tp4
sS'amit'
p5
(S'f12f8'
p6
S'sha1$f12f8$94eb8f18ce82ffbf521a696cb3663107c0ab5526'
p7
tp8
sS'Bob'
p9
(S'97b30'
p10
S'sha1$97b30$7b492cf3bbafd7b1bb6aeb862aed978c2f0a6f00'
p11
tp12
s.