(dp0
S'BMW-12345'
p1
(lp2
ccopy_reg
_reconstructor
p3
(ccar
car
p4
c__builtin__
object
p5
Ntp6
Rp7
(dp8
S'manufacture'
p9
S'bwm'
p10
sS'color'
p11
S'BLUE'
p12
sS'old_new'
p13
S'new'
p14
sS'modelyear'
p15
S'2016'
p16
sS'fuel'
p17
S'PETROL'
p18
sS'model'
p19
S'700L'
p20
sS'type'
p21
S'car'
p22
sS'serielno'
p23
g1
sbaS'a'
p24
asS'MERC-2123'
p25
(lp26
g3
(g4
g5
Ntp27
Rp28
(dp29
g9
S'BENZ'
p30
sg11
S'BLACK'
p31
sg13
S'old'
p32
sg15
S'2015'
p33
sg17
S'PETROL'
p34
sg19
S'C-CLASS'
p35
sg21
S'car'
p36
sg23
g25
sbaS'a'
p37
as.